target datalayout = "e-m:e-p270:32:32-p271:32:32-p272:64:64-i64:64-i128:128-f80:128-n8:16:32:64-S128"
target triple = "x86_64-pc-linux-gnu"

%struct.Expr = type { i32 }
%union.ListCell = type { ptr }
%struct.ForEachState = type { ptr, i32 }
%struct.List = type { i32, i32, i32, ptr, [0 x %union.ListCell] }
%struct.BoolExpr = type { %struct.Expr, i32, ptr, i32 }

@.str.41 = private unnamed_addr constant [13 x i8] c"parse_expr.c\00", align 1
@.str.81 = private unnamed_addr constant [4 x i8] c"AND\00", align 1
@.str.82 = private unnamed_addr constant [3 x i8] c"OR\00", align 1
@.str.83 = private unnamed_addr constant [4 x i8] c"NOT\00", align 1
@.str.84 = private unnamed_addr constant [24 x i8] c"unrecognized boolop: %d\00", align 1
@__func__.transformBoolExpr = private unnamed_addr constant [18 x i8] c"transformBoolExpr\00", align 1

; Function Attrs: nounwind uwtable
define internal ptr @transformBoolExpr(ptr noundef %0, ptr noundef %1) #0 {
  %3 = alloca ptr, align 8
  %4 = alloca ptr, align 8
  %5 = alloca ptr, align 8
  %6 = alloca ptr, align 8
  %7 = alloca ptr, align 8
  %8 = alloca %struct.ForEachState, align 8
  %9 = alloca ptr, align 8
  store ptr %0, ptr %3, align 8
  store ptr %1, ptr %4, align 8
  call void @llvm.lifetime.start.p0(i64 8, ptr %5) #8
  store ptr null, ptr %5, align 8
  call void @llvm.lifetime.start.p0(i64 8, ptr %6) #8
  call void @llvm.lifetime.start.p0(i64 8, ptr %7) #8
  %10 = load ptr, ptr %4, align 8
  %11 = getelementptr inbounds nuw %struct.BoolExpr, ptr %10, i32 0, i32 1
  %12 = load i32, ptr %11, align 4
  switch i32 %12, label %16 [
    i32 0, label %13
    i32 1, label %14
    i32 2, label %15
  ]

13:                                               ; preds = %2
  store ptr @.str.81, ptr %6, align 8
  br label %30

14:                                               ; preds = %2
  store ptr @.str.82, ptr %6, align 8
  br label %30

15:                                               ; preds = %2
  store ptr @.str.83, ptr %6, align 8
  br label %30

16:                                               ; preds = %2
  br label %17

17:                                               ; preds = %16
  br i1 true, label %18, label %20

18:                                               ; preds = %17
  %19 = call zeroext i1 @errstart_cold(i32 noundef 21, ptr noundef null) #9
  br i1 %19, label %22, label %27

20:                                               ; preds = %17
  %21 = call zeroext i1 @errstart(i32 noundef 21, ptr noundef null)
  br i1 %21, label %22, label %27

22:                                               ; preds = %20, %18
  %23 = load ptr, ptr %4, align 8
  %24 = getelementptr inbounds nuw %struct.BoolExpr, ptr %23, i32 0, i32 1
  %25 = load i32, ptr %24, align 4
  %26 = call i32 (ptr, ...) @errmsg_internal(ptr noundef @.str.84, i32 noundef %25)
  call void @errfinish(ptr noundef @.str.41, i32 noundef 1419, ptr noundef @__func__.transformBoolExpr)
  br label %27

27:                                               ; preds = %22, %20, %18
  unreachable

28:                                               ; No predecessors!
  br label %29

29:                                               ; preds = %28
  store ptr null, ptr %6, align 8
  br label %30

30:                                               ; preds = %29, %15, %14, %13
  call void @llvm.lifetime.start.p0(i64 16, ptr %8) #8
  %31 = getelementptr inbounds nuw %struct.ForEachState, ptr %8, i32 0, i32 0
  %32 = load ptr, ptr %4, align 8
  %33 = getelementptr inbounds nuw %struct.BoolExpr, ptr %32, i32 0, i32 2
  %34 = load ptr, ptr %33, align 8
  store ptr %34, ptr %31, align 8
  %35 = getelementptr inbounds nuw %struct.ForEachState, ptr %8, i32 0, i32 1
  store i32 0, ptr %35, align 8
  %36 = getelementptr i8, ptr %8, i64 12
  call void @llvm.memset.p0.i64(ptr align 4 %36, i8 0, i64 4, i1 false)
  br label %37

37:                                               ; preds = %76, %30
  %38 = getelementptr inbounds nuw %struct.ForEachState, ptr %8, i32 0, i32 0
  %39 = load ptr, ptr %38, align 8
  %40 = icmp ne ptr %39, null
  br i1 %40, label %41, label %58

41:                                               ; preds = %37
  %42 = getelementptr inbounds nuw %struct.ForEachState, ptr %8, i32 0, i32 1
  %43 = load i32, ptr %42, align 8
  %44 = getelementptr inbounds nuw %struct.ForEachState, ptr %8, i32 0, i32 0
  %45 = load ptr, ptr %44, align 8
  %46 = getelementptr inbounds nuw %struct.List, ptr %45, i32 0, i32 1
  %47 = load i32, ptr %46, align 4
  %48 = icmp slt i32 %43, %47
  br i1 %48, label %49, label %58

49:                                               ; preds = %41
  %50 = getelementptr inbounds nuw %struct.ForEachState, ptr %8, i32 0, i32 0
  %51 = load ptr, ptr %50, align 8
  %52 = getelementptr inbounds nuw %struct.List, ptr %51, i32 0, i32 3
  %53 = load ptr, ptr %52, align 8
  %54 = getelementptr inbounds nuw %struct.ForEachState, ptr %8, i32 0, i32 1
  %55 = load i32, ptr %54, align 8
  %56 = sext i32 %55 to i64
  %57 = getelementptr inbounds %union.ListCell, ptr %53, i64 %56
  store ptr %57, ptr %7, align 8
  br label %59

58:                                               ; preds = %41, %37
  store ptr null, ptr %7, align 8
  br label %59

59:                                               ; preds = %58, %49
  %60 = phi i32 [ 1, %49 ], [ 0, %58 ]
  %61 = icmp ne i32 %60, 0
  br i1 %61, label %63, label %62

62:                                               ; preds = %59
  call void @llvm.lifetime.end.p0(i64 16, ptr %8) #8
  br label %80

63:                                               ; preds = %59
  call void @llvm.lifetime.start.p0(i64 8, ptr %9) #8
  %64 = load ptr, ptr %7, align 8
  %65 = load ptr, ptr %64, align 8
  store ptr %65, ptr %9, align 8
  %66 = load ptr, ptr %3, align 8
  %67 = load ptr, ptr %9, align 8
  %68 = call ptr @transformExprRecurse(ptr noundef %66, ptr noundef %67)
  store ptr %68, ptr %9, align 8
  %69 = load ptr, ptr %3, align 8
  %70 = load ptr, ptr %9, align 8
  %71 = load ptr, ptr %6, align 8
  %72 = call ptr @coerce_to_boolean(ptr noundef %69, ptr noundef %70, ptr noundef %71)
  store ptr %72, ptr %9, align 8
  %73 = load ptr, ptr %5, align 8
  %74 = load ptr, ptr %9, align 8
  %75 = call ptr @lappend(ptr noundef %73, ptr noundef %74)
  store ptr %75, ptr %5, align 8
  call void @llvm.lifetime.end.p0(i64 8, ptr %9) #8
  br label %76

76:                                               ; preds = %63
  %77 = getelementptr inbounds nuw %struct.ForEachState, ptr %8, i32 0, i32 1
  %78 = load i32, ptr %77, align 8
  %79 = add i32 %78, 1
  store i32 %79, ptr %77, align 8
  br label %37, !llvm.loop !13

80:                                               ; preds = %62
  %81 = load ptr, ptr %4, align 8
  %82 = getelementptr inbounds nuw %struct.BoolExpr, ptr %81, i32 0, i32 1
  %83 = load i32, ptr %82, align 4
  %84 = load ptr, ptr %5, align 8
  %85 = load ptr, ptr %4, align 8
  %86 = getelementptr inbounds nuw %struct.BoolExpr, ptr %85, i32 0, i32 3
  %87 = load i32, ptr %86, align 8
  %88 = call ptr @makeBoolExpr(i32 noundef %83, ptr noundef %84, i32 noundef %87)
  call void @llvm.lifetime.end.p0(i64 8, ptr %7) #8
  call void @llvm.lifetime.end.p0(i64 8, ptr %6) #8
  call void @llvm.lifetime.end.p0(i64 8, ptr %5) #8
  ret ptr %88
}