; Function Attrs: nounwind uwtable
define internal fastcc ptr @transformBoolExpr(ptr noundef %0, ptr noundef nonnull readonly captures(none) %1) unnamed_addr #0 {
  %3 = getelementptr inbounds nuw i8, ptr %1, i64 4
  %4 = load i32, ptr %3, align 4
  %5 = icmp ult i32 %4, 3
  br i1 %5, label %switch.lookup, label %6

6:                                                ; preds = %2
  %7 = tail call zeroext i1 @errstart_cold(i32 noundef 21, ptr noundef null) #10
  tail call void @llvm.assume(i1 %7)
  %8 = load i32, ptr %3, align 4
  %9 = tail call i32 (ptr, ...) @errmsg_internal(ptr noundef nonnull @.str.84, i32 noundef %8) #9
  tail call void @errfinish(ptr noundef nonnull @.str.41, i32 noundef 1419, ptr noundef nonnull @__func__.transformBoolExpr) #9
  unreachable

switch.lookup:                                    ; preds = %2
  %10 = zext nneg i32 %4 to i64
  %switch.gep = getelementptr inbounds nuw [3 x ptr], ptr @switch.table.transformBoolExpr, i64 0, i64 %10
  %switch.load = load ptr, ptr %switch.gep, align 8
  %11 = getelementptr inbounds nuw i8, ptr %1, i64 8
  %12 = load ptr, ptr %11, align 8
  %13 = getelementptr inbounds nuw i8, ptr %12, i64 4
  %.not = icmp eq ptr %12, null
  br i1 %.not, label %._crit_edge, label %.lr.ph

.lr.ph:                                           ; preds = %switch.lookup
  %14 = getelementptr inbounds nuw i8, ptr %12, i64 16
  %15 = load i32, ptr %13, align 4
  %16 = icmp sgt i32 %15, 0
  br i1 %16, label %.lr.ph31, label %._crit_edge

._crit_edge.loopexit:                             ; preds = %.lr.ph31
  %.pre = load i32, ptr %3, align 4
  br label %._crit_edge

._crit_edge:                                      ; preds = %._crit_edge.loopexit, %.lr.ph, %switch.lookup
  %17 = phi i32 [ %4, %switch.lookup ], [ %4, %.lr.ph ], [ %.pre, %._crit_edge.loopexit ]
  %.0.lcssa = phi ptr [ null, %switch.lookup ], [ null, %.lr.ph ], [ %26, %._crit_edge.loopexit ]
  %18 = getelementptr inbounds nuw i8, ptr %1, i64 16
  %19 = load i32, ptr %18, align 8
  %20 = tail call ptr @makeBoolExpr(i32 noundef %17, ptr noundef %.0.lcssa, i32 noundef %19) #9
  ret ptr %20

.lr.ph31:                                         ; preds = %.lr.ph, %.lr.ph31
  %indvars.iv = phi i64 [ %indvars.iv.next, %.lr.ph31 ], [ 0, %.lr.ph ]
  %.02529 = phi ptr [ %26, %.lr.ph31 ], [ null, %.lr.ph ]
  %21 = load ptr, ptr %14, align 8
  %22 = getelementptr inbounds nuw %union.ListCell, ptr %21, i64 %indvars.iv
  %23 = load ptr, ptr %22, align 8
  %24 = tail call fastcc ptr @transformExprRecurse(ptr noundef %0, ptr noundef %23)
  %25 = tail call ptr @coerce_to_boolean(ptr noundef %0, ptr noundef %24, ptr noundef nonnull %switch.load) #9
  %26 = tail call ptr @lappend(ptr noundef %.02529, ptr noundef %25) #9
  %indvars.iv.next = add nuw nsw i64 %indvars.iv, 1
  %27 = load i32, ptr %13, align 4
  %28 = sext i32 %27 to i64
  %29 = icmp slt i64 %indvars.iv.next, %28
  br i1 %29, label %.lr.ph31, label %._crit_edge.loopexit
}